; ModuleID = '38/805.c'
source_filename = "38/805.c"
target datalayout = "e-m:e-p270:32:32-p271:32:32-p272:64:64-i64:64-f80:128-n8:16:32:64-S128"
target triple = "x86_64-pc-linux-gnu"

@.str = private unnamed_addr constant [3 x i8] c"%d\00", align 1
@.str.1 = private unnamed_addr constant [4 x i8] c"%lf\00", align 1
@.str.2 = private unnamed_addr constant [7 x i8] c"%.5lf\0A\00", align 1

; Function Attrs: noinline nounwind uwtable
define dso_local i32 @main() #0 {
  %1 = alloca i32, align 4
  %2 = alloca i32, align 4
  %3 = alloca i32, align 4
  %4 = alloca i32, align 4
  %5 = alloca [100 x i32], align 16
  %6 = alloca [100 x double], align 16
  %7 = alloca [100 x double], align 16
  %8 = alloca [100 x double], align 16
  %9 = alloca [100 x [100 x double]], align 16
  %10 = alloca [100 x double], align 16
  store i32 0, i32* %1, align 4
  %11 = bitcast [100 x double]* %6 to i8*
  call void @llvm.memset.p0i8.i64(i8* align 16 %11, i8 0, i64 800, i1 false)
  %12 = bitcast [100 x double]* %7 to i8*
  call void @llvm.memset.p0i8.i64(i8* align 16 %12, i8 0, i64 800, i1 false)
  %13 = bitcast [100 x double]* %8 to i8*
  call void @llvm.memset.p0i8.i64(i8* align 16 %13, i8 0, i64 800, i1 false)
  %14 = bitcast [100 x [100 x double]]* %9 to i8*
  call void @llvm.memset.p0i8.i64(i8* align 16 %14, i8 0, i64 80000, i1 false)
  %15 = bitcast [100 x double]* %10 to i8*
  call void @llvm.memset.p0i8.i64(i8* align 16 %15, i8 0, i64 800, i1 false)
  %16 = call i32 (i8*, ...) @__isoc99_scanf(i8* getelementptr inbounds ([3 x i8], [3 x i8]* @.str, i64 0, i64 0), i32* %4)
  store i32 0, i32* %2, align 4
  br label %17

17:                                               ; preds = %45, %0
  %18 = load i32, i32* %2, align 4
  %19 = load i32, i32* %4, align 4
  %20 = icmp slt i32 %18, %19
  br i1 %20, label %21, label %48

21:                                               ; preds = %17
  %22 = load i32, i32* %2, align 4
  %23 = sext i32 %22 to i64
  %24 = getelementptr inbounds [100 x i32], [100 x i32]* %5, i64 0, i64 %23
  %25 = call i32 (i8*, ...) @__isoc99_scanf(i8* getelementptr inbounds ([3 x i8], [3 x i8]* @.str, i64 0, i64 0), i32* %24)
  store i32 0, i32* %3, align 4
  br label %26

26:                                               ; preds = %41, %21
  %27 = load i32, i32* %3, align 4
  %28 = load i32, i32* %2, align 4
  %29 = sext i32 %28 to i64
  %30 = getelementptr inbounds [100 x i32], [100 x i32]* %5, i64 0, i64 %29
  %31 = load i32, i32* %30, align 4
  %32 = icmp slt i32 %27, %31
  br i1 %32, label %33, label %44

33:                                               ; preds = %26
  %34 = load i32, i32* %2, align 4
  %35 = sext i32 %34 to i64
  %36 = getelementptr inbounds [100 x [100 x double]], [100 x [100 x double]]* %9, i64 0, i64 %35
  %37 = load i32, i32* %3, align 4
  %38 = sext i32 %37 to i64
  %39 = getelementptr inbounds [100 x double], [100 x double]* %36, i64 0, i64 %38
  %40 = call i32 (i8*, ...) @__isoc99_scanf(i8* getelementptr inbounds ([4 x i8], [4 x i8]* @.str.1, i64 0, i64 0), double* %39)
  br label %41

41:                                               ; preds = %33
  %42 = load i32, i32* %3, align 4
  %43 = add nsw i32 %42, 1
  store i32 %43, i32* %3, align 4
  br label %26

44:                                               ; preds = %26
  br label %45

45:                                               ; preds = %44
  %46 = load i32, i32* %2, align 4
  %47 = add nsw i32 %46, 1
  store i32 %47, i32* %2, align 4
  br label %17

48:                                               ; preds = %17
  store i32 0, i32* %2, align 4
  br label %49

49:                                               ; preds = %91, %48
  %50 = load i32, i32* %2, align 4
  %51 = load i32, i32* %4, align 4
  %52 = icmp slt i32 %50, %51
  br i1 %52, label %53, label %94

53:                                               ; preds = %49
  store i32 0, i32* %3, align 4
  br label %54

54:                                               ; preds = %74, %53
  %55 = load i32, i32* %3, align 4
  %56 = load i32, i32* %2, align 4
  %57 = sext i32 %56 to i64
  %58 = getelementptr inbounds [100 x i32], [100 x i32]* %5, i64 0, i64 %57
  %59 = load i32, i32* %58, align 4
  %60 = icmp slt i32 %55, %59
  br i1 %60, label %61, label %77

61:                                               ; preds = %54
  %62 = load i32, i32* %2, align 4
  %63 = sext i32 %62 to i64
  %64 = getelementptr inbounds [100 x [100 x double]], [100 x [100 x double]]* %9, i64 0, i64 %63
  %65 = load i32, i32* %3, align 4
  %66 = sext i32 %65 to i64
  %67 = getelementptr inbounds [100 x double], [100 x double]* %64, i64 0, i64 %66
  %68 = load double, double* %67, align 8
  %69 = load i32, i32* %2, align 4
  %70 = sext i32 %69 to i64
  %71 = getelementptr inbounds [100 x double], [100 x double]* %6, i64 0, i64 %70
  %72 = load double, double* %71, align 8
  %73 = fadd double %72, %68
  store double %73, double* %71, align 8
  br label %74

74:                                               ; preds = %61
  %75 = load i32, i32* %3, align 4
  %76 = add nsw i32 %75, 1
  store i32 %76, i32* %3, align 4
  br label %54

77:                                               ; preds = %54
  %78 = load i32, i32* %2, align 4
  %79 = sext i32 %78 to i64
  %80 = getelementptr inbounds [100 x double], [100 x double]* %6, i64 0, i64 %79
  %81 = load double, double* %80, align 8
  %82 = load i32, i32* %2, align 4
  %83 = sext i32 %82 to i64
  %84 = getelementptr inbounds [100 x i32], [100 x i32]* %5, i64 0, i64 %83
  %85 = load i32, i32* %84, align 4
  %86 = sitofp i32 %85 to double
  %87 = fdiv double %81, %86
  %88 = load i32, i32* %2, align 4
  %89 = sext i32 %88 to i64
  %90 = getelementptr inbounds [100 x double], [100 x double]* %10, i64 0, i64 %89
  store double %87, double* %90, align 8
  br label %91

91:                                               ; preds = %77
  %92 = load i32, i32* %2, align 4
  %93 = add nsw i32 %92, 1
  store i32 %93, i32* %2, align 4
  br label %49

94:                                               ; preds = %49
  store i32 0, i32* %2, align 4
  br label %95

95:                                               ; preds = %156, %94
  %96 = load i32, i32* %2, align 4
  %97 = load i32, i32* %4, align 4
  %98 = icmp slt i32 %96, %97
  br i1 %98, label %99, label %159

99:                                               ; preds = %95
  store i32 0, i32* %3, align 4
  br label %100

100:                                              ; preds = %138, %99
  %101 = load i32, i32* %3, align 4
  %102 = load i32, i32* %2, align 4
  %103 = sext i32 %102 to i64
  %104 = getelementptr inbounds [100 x i32], [100 x i32]* %5, i64 0, i64 %103
  %105 = load i32, i32* %104, align 4
  %106 = icmp slt i32 %101, %105
  br i1 %106, label %107, label %141

107:                                              ; preds = %100
  %108 = load i32, i32* %2, align 4
  %109 = sext i32 %108 to i64
  %110 = getelementptr inbounds [100 x [100 x double]], [100 x [100 x double]]* %9, i64 0, i64 %109
  %111 = load i32, i32* %3, align 4
  %112 = sext i32 %111 to i64
  %113 = getelementptr inbounds [100 x double], [100 x double]* %110, i64 0, i64 %112
  %114 = load double, double* %113, align 8
  %115 = load i32, i32* %2, align 4
  %116 = sext i32 %115 to i64
  %117 = getelementptr inbounds [100 x double], [100 x double]* %10, i64 0, i64 %116
  %118 = load double, double* %117, align 8
  %119 = fsub double %114, %118
  %120 = load i32, i32* %2, align 4
  %121 = sext i32 %120 to i64
  %122 = getelementptr inbounds [100 x [100 x double]], [100 x [100 x double]]* %9, i64 0, i64 %121
  %123 = load i32, i32* %3, align 4
  %124 = sext i32 %123 to i64
  %125 = getelementptr inbounds [100 x double], [100 x double]* %122, i64 0, i64 %124
  %126 = load double, double* %125, align 8
  %127 = load i32, i32* %2, align 4
  %128 = sext i32 %127 to i64
  %129 = getelementptr inbounds [100 x double], [100 x double]* %10, i64 0, i64 %128
  %130 = load double, double* %129, align 8
  %131 = fsub double %126, %130
  %132 = fmul double %119, %131
  %133 = load i32, i32* %2, align 4
  %134 = sext i32 %133 to i64
  %135 = getelementptr inbounds [100 x double], [100 x double]* %7, i64 0, i64 %134
  %136 = load double, double* %135, align 8
  %137 = fadd double %136, %132
  store double %137, double* %135, align 8
  br label %138

138:                                              ; preds = %107
  %139 = load i32, i32* %3, align 4
  %140 = add nsw i32 %139, 1
  store i32 %140, i32* %3, align 4
  br label %100

141:                                              ; preds = %100
  %142 = load i32, i32* %2, align 4
  %143 = sext i32 %142 to i64
  %144 = getelementptr inbounds [100 x double], [100 x double]* %7, i64 0, i64 %143
  %145 = load double, double* %144, align 8
  %146 = load i32, i32* %2, align 4
  %147 = sext i32 %146 to i64
  %148 = getelementptr inbounds [100 x i32], [100 x i32]* %5, i64 0, i64 %147
  %149 = load i32, i32* %148, align 4
  %150 = sitofp i32 %149 to double
  %151 = fdiv double %145, %150
  %152 = call double @sqrt(double %151) #4
  %153 = load i32, i32* %2, align 4
  %154 = sext i32 %153 to i64
  %155 = getelementptr inbounds [100 x double], [100 x double]* %8, i64 0, i64 %154
  store double %152, double* %155, align 8
  br label %156

156:                                              ; preds = %141
  %157 = load i32, i32* %2, align 4
  %158 = add nsw i32 %157, 1
  store i32 %158, i32* %2, align 4
  br label %95

159:                                              ; preds = %95
  store i32 0, i32* %2, align 4
  br label %160

160:                                              ; preds = %170, %159
  %161 = load i32, i32* %2, align 4
  %162 = load i32, i32* %4, align 4
  %163 = icmp slt i32 %161, %162
  br i1 %163, label %164, label %173

164:                                              ; preds = %160
  %165 = load i32, i32* %2, align 4
  %166 = sext i32 %165 to i64
  %167 = getelementptr inbounds [100 x double], [100 x double]* %8, i64 0, i64 %166
  %168 = load double, double* %167, align 8
  %169 = call i32 (i8*, ...) @printf(i8* getelementptr inbounds ([7 x i8], [7 x i8]* @.str.2, i64 0, i64 0), double %168)
  br label %170

170:                                              ; preds = %164
  %171 = load i32, i32* %2, align 4
  %172 = add nsw i32 %171, 1
  store i32 %172, i32* %2, align 4
  br label %160

173:                                              ; preds = %160
  ret i32 0
}

; Function Attrs: argmemonly nounwind willreturn
declare void @llvm.memset.p0i8.i64(i8* nocapture writeonly, i8, i64, i1 immarg) #1

declare dso_local i32 @__isoc99_scanf(i8*, ...) #2

; Function Attrs: nounwind
declare dso_local double @sqrt(double) #3

declare dso_local i32 @printf(i8*, ...) #2


!llvm.module.flags = !{!0}
!llvm.ident = !{!1}

!0 = !{i32 1, !"wchar_size", i32 4}
!1 = !{!"clang version 10.0.0-4ubuntu1 "}
